target datalayout = "e-m:e-p270:32:32-p271:32:32-p272:64:64-i64:64-i128:128-f80:128-n8:16:32:64-S128"
target triple = "x86_64-pc-linux-gnu"

%"class.sat::literal" = type { i32 }
%"class.sat::asymm_branch" = type { ptr, %class.params_ref, i64, %class.random_gen, i32, i32, i8, i32, i32, i8, i8, i64, i32, i32, i32, %class.svector, %class.svector, %class.svector.0, %class.svector.0, %class.svector, %class.svector }
%class.params_ref = type { ptr }
%class.random_gen = type { i32 }
%class.svector.0 = type { %class.vector.1 }
%class.vector.1 = type { ptr }
%class.svector = type { %class.vector }
%class.vector = type { ptr }
%"class.sat::solver" = type { %"class.sat::solver_core", i8, [7 x i8], %"struct.sat::config", %"struct.sat::stats", %class.scoped_ptr, %class.scoped_ptr.2, ptr, %"class.sat::drat", [2 x %"class.sat::clause_allocator"], i8, %class.random_gen, %"class.sat::cleaner", %class.svector.15, %"class.sat::model_converter", i8, %"class.sat::simplifier", %"class.sat::scc", %"class.sat::asymm_branch", %"class.sat::probing", i8, [7 x i8], %"class.sat::mus", i8, i8, [6 x i8], %"class.sat::justification", %"class.sat::literal", %class.ptr_vector.24, %class.ptr_vector.24, i32, %class.svector.8, %class.svector.8, %class.svector.8, %class.svector.8, %class.vector.38, %class.svector.15, %class.svector.39, %class.svector.18, %class.svector.18, %class.svector.18, %class.svector.18, %class.svector.18, %class.svector.8, %class.svector.8, i32, %class.svector, %class.svector.8, i32, %class.svector.41, %class.svector.41, %class.svector.41, %class.svector.41, %class.svector.41, i32, double, %class.svector.18, %class.svector.18, %class.svector.18, i8, %class.svector.28, i32, i32, i32, i32, i32, i32, %"struct.sat::backoff", i32, i32, %"struct.sat::backoff", %"struct.sat::backoff", %class.var_queue, i32, i32, i32, %class.ema, %class.ema, %class.ema, %class.ema, %class.ema, %class.svector, %class.svector.30, %"class.std::__cxx11::basic_string", i8, i8, %class.visit_helper, %class.svector.43, %class.scoped_limit_trail, %class.stopwatch, %class.params_ref, %"struct.sat::no_drat_params", %class.scoped_ptr.45, %class.svector, %"class.sat::literal_set", %"class.sat::literal_set", %class.svector, i32, i32, i32, i32, i8, ptr, ptr, %class.statistics, i32, i32, i32, i32, i8, i32, i32, i32, i32, i32, i32, i32, double, i32, double, i8, i8, %class.svector, i8, %class.svector.41, i32, i32, i32, %class.svector, %class.svector, %class.svector.28, %class.svector.8, %class.approx_set_tpl, %class.svector, %class.svector, %class.vector.14, %class.svector, %class.svector.36, %class.u_map, %class.svector }
%"class.sat::solver_core" = type { ptr, ptr }
%"struct.sat::config" = type <{ i64, i32, i32, i32, i8, [3 x i8], i32, i32, double, i32, i8, [3 x i8], i32, i8, [3 x i8], i32, [4 x i8], double, double, i32, i32, double, double, i32, [4 x i8], %class.symbol, double, i32, i32, i8, [3 x i8], i32, i32, i8, [3 x i8], i32, i8, [3 x i8], i32, i8, [3 x i8], i32, i8, i8, [2 x i8], i32, i8, i8, i8, i8, i8, i8, i8, i8, i32, i8, i8, i8, i8, i32, double, i32, [4 x i8], double, double, double, double, i32, i8, i8, [2 x i8], double, i8, i8, [2 x i8], i32, double, i32, i32, i32, i32, i32, i32, i32, i32, i8, i8, i8, i8, i32, i32, i8, i8, i8, i8, i8, i8, i8, [5 x i8], %class.symbol, i8, i8, i8, i8, i8, i8, [2 x i8], i32, i32, i32, i8, [3 x i8], double, double, double, double, double, i8, [7 x i8] }>
%class.symbol = type { ptr }
%"struct.sat::stats" = type { i32, i32, i32, i32, i32, i32, i32, i32, i32, i32, i32, i32, i32, i32, i32, i32, i32, i32, i32, i32, i32 }
%class.scoped_ptr = type { ptr }
%class.scoped_ptr.2 = type { ptr }
%"class.sat::drat" = type { ptr, %class.svector.3, ptr, %"class.sat::clause_allocator", ptr, ptr, %class.svector.10, %class.svector.12, %class.vector.14, %class.svector.15, i8, i8, i8, i8, i8, %"struct.sat::drat::stats" }
%class.svector.3 = type { %class.vector.4 }
%class.vector.4 = type { ptr }
%"class.sat::clause_allocator" = type { %class.sat_allocator, %class.id_gen }
%class.sat_allocator = type { ptr, i64, %class.ptr_vector, ptr, [65 x %class.ptr_vector.6] }
%class.ptr_vector = type { %class.vector.5 }
%class.vector.5 = type { ptr }
%class.ptr_vector.6 = type { %class.vector.7 }
%class.vector.7 = type { ptr }
%class.id_gen = type { i32, %class.svector.8 }
%class.svector.10 = type { %class.vector.11 }
%class.vector.11 = type { ptr }
%class.svector.12 = type { %class.vector.13 }
%class.vector.13 = type { ptr }
%"struct.sat::drat::stats" = type { i32, i32, i32, i32 }
%"class.sat::cleaner" = type { ptr, i32, i32, i32, i32 }
%"class.sat::model_converter" = type { %class.vector.17, i32, %class.svector.18, ptr, %class.svector.20 }
%class.vector.17 = type { ptr }
%class.svector.20 = type { %class.vector.21 }
%class.vector.21 = type { ptr }
%"class.sat::simplifier" = type { ptr, i32, %"class.sat::use_list", %"class.sat::ext_use_list", %"class.sat::clause_set", %class.svector.26, i32, %class.tracked_uint_set, i8, %"class.sat::tmp_clause", %class.svector.28, i32, i32, i8, i8, i8, i8, i32, i8, i8, i32, i8, i32, i8, i8, i32, i32, i32, i32, i32, i32, i32, i32, i32, i32, i8, i32, i8, i8, i32, i32, i32, i32, i32, i32, i32, i32, i32, i32, i32, i8, i32, %class.ptr_vector.24, %class.svector, %class.svector.30, %class.svector.30, %class.svector }
%"class.sat::use_list" = type { %class.vector.22 }
%class.vector.22 = type { ptr }
%"class.sat::ext_use_list" = type { %class.vector.23 }
%class.vector.23 = type { ptr }
%"class.sat::clause_set" = type { %class.svector.8, %class.ptr_vector.24 }
%class.svector.26 = type { %class.vector.27 }
%class.vector.27 = type { ptr }
%class.tracked_uint_set = type { %class.svector.28, %class.svector.8 }
%"class.sat::tmp_clause" = type { ptr }
%"class.sat::scc" = type { ptr, i8, i8, i32, i32, %"class.sat::big" }
%"class.sat::big" = type { ptr, i32, %class.vector.32, %class.svector.18, %class.svector.33, %class.svector.33, %class.svector, %class.svector, i8, i8, %class.vector.32 }
%class.svector.33 = type { %class.vector.34 }
%class.vector.34 = type { ptr }
%class.vector.32 = type { ptr }
%"class.sat::probing" = type { ptr, i32, %"class.sat::literal_set", %class.svector, i32, i8, i32, i8, i8, i64, i32, %class.vector.35, %class.svector.36, %"class.sat::big" }
%class.vector.35 = type { ptr }
%"class.sat::mus" = type <{ ptr, %class.svector, %class.svector, i8, [7 x i8], %class.svector.15, i32, [4 x i8] }>
%"class.sat::justification" = type <{ i32, [4 x i8], i64, i32, [4 x i8] }>
%class.ptr_vector.24 = type { %class.vector.25 }
%class.vector.25 = type { ptr }
%class.vector.38 = type { ptr }
%class.svector.15 = type { %class.vector.16 }
%class.vector.16 = type { ptr }
%class.svector.39 = type { %class.vector.40 }
%class.vector.40 = type { ptr }
%class.svector.18 = type { %class.vector.19 }
%class.vector.19 = type { ptr }
%"struct.sat::backoff" = type { i32, i32, i32, i32, i32 }
%class.var_queue = type { %class.heap }
%class.heap = type { %"struct.var_queue<svector<unsigned int>>::lt", %class.svector.33, %class.svector.33 }
%"struct.var_queue<svector<unsigned int>>::lt" = type { ptr }
%class.ema = type { double, double, double, i32, i32 }
%class.svector.30 = type { %class.vector.31 }
%class.vector.31 = type { ptr }
%"class.std::__cxx11::basic_string" = type { %"struct.std::__cxx11::basic_string<char>::_Alloc_hider", i64, %union.anon }
%"struct.std::__cxx11::basic_string<char>::_Alloc_hider" = type { ptr }
%union.anon = type { i64, [8 x i8] }
%class.visit_helper = type { %class.svector.8, i32, i32 }
%class.svector.43 = type { %class.vector.44 }
%class.vector.44 = type { ptr }
%class.scoped_limit_trail = type { %class.svector.8, i32, i32 }
%class.stopwatch = type <{ %"class.std::chrono::time_point", %"class.std::chrono::duration", i8, [7 x i8] }>
%"class.std::chrono::time_point" = type { %"class.std::chrono::duration" }
%"class.std::chrono::duration" = type { i64 }
%"struct.sat::no_drat_params" = type { %class.params_ref }
%class.scoped_ptr.45 = type { ptr }
%"class.sat::literal_set" = type { %class.tracked_uint_set }
%class.statistics = type { %class.svector.46, %class.svector.48 }
%class.svector.46 = type { %class.vector.47 }
%class.vector.47 = type { ptr }
%class.svector.48 = type { %class.vector.49 }
%class.vector.49 = type { ptr }
%class.svector.41 = type { %class.vector.42 }
%class.vector.42 = type { ptr }
%class.svector.28 = type { %class.vector.29 }
%class.vector.29 = type { ptr }
%class.svector.8 = type { %class.vector.9 }
%class.vector.9 = type { ptr }
%class.approx_set_tpl = type { i32 }
%class.vector.14 = type { ptr }
%class.svector.36 = type { %class.vector.37 }
%class.vector.37 = type { ptr }
%class.u_map = type { %class.map }
%class.map = type { %class.table2map }
%class.table2map = type { %class.core_hashtable }
%class.core_hashtable = type <{ ptr, i32, i32, i32, [4 x i8] }>
%"class.sat::clause" = type { i32, i32, i32, %class.approx_set_tpl, i32, [0 x %"class.sat::literal"] }

@.str.5 = private unnamed_addr constant [112 x i8] c"generated/home/dtcxzyw/WorkSpace/Projects/compilers/llvm-opt-benchmark/bench/z3/z3/src/sat/sat_asymm_branch.cpp\00", align 1
@.str.6 = private unnamed_addr constant [49 x i8] c"Failed to verify: s.m_trail.size() == s.m_qhead\0A\00", align 1

; Function Attrs: mustprogress nounwind uwtable
define linkonce_odr hidden i32 @_ZN3satcoENS_7literalE(i32 %0) #5 comdat {
  %2 = alloca %"class.sat::literal", align 4
  %3 = alloca %"class.sat::literal", align 4
  %4 = getelementptr inbounds nuw %"class.sat::literal", ptr %3, i32 0, i32 0
  store i32 %0, ptr %4, align 4
  %5 = getelementptr inbounds nuw %"class.sat::literal", ptr %3, i32 0, i32 0
  %6 = load i32, ptr %5, align 4, !tbaa !256
  %7 = xor i32 %6, 1
  %8 = getelementptr inbounds nuw %"class.sat::literal", ptr %3, i32 0, i32 0
  store i32 %7, ptr %8, align 4, !tbaa !256
  call void @llvm.memcpy.p0.p0.i64(ptr align 4 %2, ptr align 4 %3, i64 4, i1 false), !tbaa.struct !214
  %9 = getelementptr inbounds nuw %"class.sat::literal", ptr %2, i32 0, i32 0
  %10 = load i32, ptr %9, align 4
  ret i32 %10
}

; Function Attrs: mustprogress nounwind uwtable
define linkonce_odr hidden noundef nonnull align 4 dereferenceable(4) ptr @_ZNK3sat6clauseixEj(ptr noundef nonnull align 4 dereferenceable(20) %0, i32 noundef %1) #5 comdat align 2 {
  %3 = alloca ptr, align 8
  %4 = alloca i32, align 4
  store ptr %0, ptr %3, align 8, !tbaa !200
  store i32 %1, ptr %4, align 4, !tbaa !30
  %5 = load ptr, ptr %3, align 8
  %6 = getelementptr inbounds nuw %"class.sat::clause", ptr %5, i32 0, i32 5
  %7 = load i32, ptr %4, align 4, !tbaa !30
  %8 = zext i32 %7 to i64
  %9 = getelementptr inbounds nuw [0 x %"class.sat::literal"], ptr %6, i64 0, i64 %8
  ret ptr %9
}

; Function Attrs: mustprogress nounwind uwtable
define linkonce_odr hidden noundef i32 @_ZNK3sat6clause4sizeEv(ptr noundef nonnull align 4 dereferenceable(20) %0) #5 comdat align 2 {
  %2 = alloca ptr, align 8
  store ptr %0, ptr %2, align 8, !tbaa !200
  %3 = load ptr, ptr %2, align 8
  %4 = getelementptr inbounds nuw %"class.sat::clause", ptr %3, i32 0, i32 1
  %5 = load i32, ptr %4, align 4, !tbaa !241
  ret i32 %5
}

; Function Attrs: mustprogress nounwind uwtable
define linkonce_odr hidden noundef i32 @_ZNK6vectorIN3sat7literalELb0EjE4sizeEv(ptr noundef nonnull align 8 dereferenceable(8) %0) #5 comdat align 2 {
  %2 = alloca i32, align 4
  %3 = alloca ptr, align 8
  store ptr %0, ptr %3, align 8, !tbaa !45
  %4 = load ptr, ptr %3, align 8
  %5 = getelementptr inbounds nuw %class.vector, ptr %4, i32 0, i32 0
  %6 = load ptr, ptr %5, align 8, !tbaa !255
  %7 = icmp eq ptr %6, null
  br i1 %7, label %8, label %9

8:                                                ; preds = %1
  store i32 0, ptr %2, align 4
  br label %14

9:                                                ; preds = %1
  %10 = getelementptr inbounds nuw %class.vector, ptr %4, i32 0, i32 0
  %11 = load ptr, ptr %10, align 8, !tbaa !255
  %12 = getelementptr inbounds i32, ptr %11, i64 -1
  %13 = load i32, ptr %12, align 4, !tbaa !30
  store i32 %13, ptr %2, align 4
  br label %14

14:                                               ; preds = %9, %8
  %15 = load i32, ptr %2, align 4
  ret i32 %15
}

; Function Attrs: mustprogress uwtable
define hidden noundef zeroext i1 @_ZN3sat12asymm_branch15flip_literal_atERKNS_6clauseEjRj(ptr noundef nonnull align 8 dereferenceable(128) %0, ptr noundef nonnull align 4 dereferenceable(20) %1, i32 noundef %2, ptr noundef nonnull align 4 dereferenceable(4) %3) #4 align 2 {
  %5 = alloca ptr, align 8
  %6 = alloca ptr, align 8
  %7 = alloca i32, align 4
  %8 = alloca ptr, align 8
  %9 = alloca i8, align 1
  %10 = alloca i32, align 4
  %11 = alloca i32, align 4
  %12 = alloca %"class.sat::literal", align 4
  %13 = alloca %"class.sat::literal", align 4
  %14 = alloca %"class.sat::literal", align 4
  store ptr %0, ptr %5, align 8, !tbaa !3
  store ptr %1, ptr %6, align 8, !tbaa !200
  store i32 %2, ptr %7, align 4, !tbaa !30
  store ptr %3, ptr %8, align 8, !tbaa !243
  %15 = load ptr, ptr %5, align 8
  %16 = getelementptr inbounds nuw %"class.sat::asymm_branch", ptr %15, i32 0, i32 0
  %17 = load ptr, ptr %16, align 8, !tbaa !51
  %18 = getelementptr inbounds nuw %"class.sat::solver", ptr %17, i32 0, i32 81
  %19 = call noundef i32 @_ZNK6vectorIN3sat7literalELb0EjE4sizeEv(ptr noundef nonnull align 8 dereferenceable(8) %18)
  %20 = getelementptr inbounds nuw %"class.sat::asymm_branch", ptr %15, i32 0, i32 0
  %21 = load ptr, ptr %20, align 8, !tbaa !51
  %22 = getelementptr inbounds nuw %"class.sat::solver", ptr %21, i32 0, i32 73
  %23 = load i32, ptr %22, align 8, !tbaa !244
  %24 = icmp eq i32 %19, %23
  br i1 %24, label %26, label %25

25:                                               ; preds = %4
  call void @_Z26notify_assertion_violationPKciS0_(ptr noundef @.str.5, i32 noundef 353, ptr noundef @.str.6)
  call void @_Z18invoke_exit_actionj(i32 noundef 114)
  br label %26

26:                                               ; preds = %25, %4
  call void @llvm.lifetime.start.p0(i64 1, ptr %9) #3
  store i8 0, ptr %9, align 1, !tbaa !52
  call void @llvm.lifetime.start.p0(i64 4, ptr %10) #3
  store i32 0, ptr %10, align 4, !tbaa !30
  call void @llvm.lifetime.start.p0(i64 4, ptr %11) #3
  %27 = load ptr, ptr %6, align 8, !tbaa !200
  %28 = call noundef i32 @_ZNK3sat6clause4sizeEv(ptr noundef nonnull align 4 dereferenceable(20) %27)
  store i32 %28, ptr %11, align 4, !tbaa !30
  %29 = getelementptr inbounds nuw %"class.sat::asymm_branch", ptr %15, i32 0, i32 0
  %30 = load ptr, ptr %29, align 8, !tbaa !51
  call void @_ZN3sat6solver4pushEv(ptr noundef nonnull align 8 dereferenceable(4264) %30)
  store i32 0, ptr %10, align 4, !tbaa !30
  br label %31

31:                                               ; preds = %58, %26
  %32 = load i8, ptr %9, align 1, !tbaa !52, !range !53, !noundef !54
  %33 = trunc i8 %32 to i1
  br i1 %33, label %38, label %34

34:                                               ; preds = %31
  %35 = load i32, ptr %10, align 4, !tbaa !30
  %36 = load i32, ptr %11, align 4, !tbaa !30
  %37 = icmp ult i32 %35, %36
  br label %38

38:                                               ; preds = %34, %31
  %39 = phi i1 [ false, %31 ], [ %37, %34 ]
  br i1 %39, label %40, label %61

40:                                               ; preds = %38
  %41 = load i32, ptr %10, align 4, !tbaa !30
  %42 = load i32, ptr %7, align 4, !tbaa !30
  %43 = icmp eq i32 %41, %42
  br i1 %43, label %44, label %45

44:                                               ; preds = %40
  br label %58

45:                                               ; preds = %40
  %46 = load ptr, ptr %6, align 8, !tbaa !200
  %47 = load ptr, ptr %6, align 8, !tbaa !200
  %48 = load i32, ptr %10, align 4, !tbaa !30
  %49 = call noundef nonnull align 4 dereferenceable(4) ptr @_ZNK3sat6clauseixEj(ptr noundef nonnull align 4 dereferenceable(20) %47, i32 noundef %48)
  call void @llvm.memcpy.p0.p0.i64(ptr align 4 %13, ptr align 4 %49, i64 4, i1 false), !tbaa.struct !214
  %50 = getelementptr inbounds nuw %"class.sat::literal", ptr %13, i32 0, i32 0
  %51 = load i32, ptr %50, align 4
  %52 = call i32 @_ZN3satcoENS_7literalE(i32 %51)
  %53 = getelementptr inbounds nuw %"class.sat::literal", ptr %12, i32 0, i32 0
  store i32 %52, ptr %53, align 4
  %54 = getelementptr inbounds nuw %"class.sat::literal", ptr %12, i32 0, i32 0
  %55 = load i32, ptr %54, align 4
  %56 = call noundef zeroext i1 @_ZN3sat12asymm_branch17propagate_literalERKNS_6clauseENS_7literalE(ptr noundef nonnull align 8 dereferenceable(128) %15, ptr noundef nonnull align 4 dereferenceable(20) %46, i32 %55)
  %57 = zext i1 %56 to i8
  store i8 %57, ptr %9, align 1, !tbaa !52
  br label %58

58:                                               ; preds = %45, %44
  %59 = load i32, ptr %10, align 4, !tbaa !30
  %60 = add i32 %59, 1
  store i32 %60, ptr %10, align 4, !tbaa !30
  br label %31, !llvm.loop !245

61:                                               ; preds = %38
  %62 = load i8, ptr %9, align 1, !tbaa !52, !range !53, !noundef !54
  %63 = trunc i8 %62 to i1
  br i1 %63, label %73, label %64

64:                                               ; preds = %61
  %65 = load ptr, ptr %6, align 8, !tbaa !200
  %66 = load ptr, ptr %6, align 8, !tbaa !200
  %67 = load i32, ptr %7, align 4, !tbaa !30
  %68 = call noundef nonnull align 4 dereferenceable(4) ptr @_ZNK3sat6clauseixEj(ptr noundef nonnull align 4 dereferenceable(20) %66, i32 noundef %67)
  call void @llvm.memcpy.p0.p0.i64(ptr align 4 %14, ptr align 4 %68, i64 4, i1 false), !tbaa.struct !214
  %69 = getelementptr inbounds nuw %"class.sat::literal", ptr %14, i32 0, i32 0
  %70 = load i32, ptr %69, align 4
  %71 = call noundef zeroext i1 @_ZN3sat12asymm_branch17propagate_literalERKNS_6clauseENS_7literalE(ptr noundef nonnull align 8 dereferenceable(128) %15, ptr noundef nonnull align 4 dereferenceable(20) %65, i32 %70)
  %72 = zext i1 %71 to i8
  store i8 %72, ptr %9, align 1, !tbaa !52
  br label %73

73:                                               ; preds = %64, %61
  %74 = getelementptr inbounds nuw %"class.sat::asymm_branch", ptr %15, i32 0, i32 0
  %75 = load ptr, ptr %74, align 8, !tbaa !51
  call void @_ZN3sat6solver3popEj(ptr noundef nonnull align 8 dereferenceable(4264) %75, i32 noundef 1)
  %76 = load i32, ptr %10, align 4, !tbaa !30
  %77 = load ptr, ptr %8, align 8, !tbaa !243
  store i32 %76, ptr %77, align 4, !tbaa !30
  %78 = load i8, ptr %9, align 1, !tbaa !52, !range !53, !noundef !54
  %79 = trunc i8 %78 to i1
  call void @llvm.lifetime.end.p0(i64 4, ptr %11) #3
  call void @llvm.lifetime.end.p0(i64 4, ptr %10) #3
  call void @llvm.lifetime.end.p0(i64 1, ptr %9) #3
  ret i1 %79
}