; Function Attrs: mustprogress uwtable
define hidden noundef zeroext i1 @_ZN3sat12asymm_branch15flip_literal_atERKNS_6clauseEjRj(ptr noundef nonnull readonly align 8 captures(none) dereferenceable(128) %0, ptr noundef nonnull readonly align 4 captures(none) dereferenceable(20) %1, i32 noundef %2, ptr noundef nonnull writeonly align 4 captures(none) dereferenceable(4) %3) local_unnamed_addr #3 align 2 {
  %5 = load ptr, ptr %0, align 8, !tbaa !40
  %6 = getelementptr inbounds nuw i8, ptr %5, i64 3784
  %7 = load ptr, ptr %6, align 8, !tbaa !38
  %8 = icmp eq ptr %7, null
  br i1 %8, label %_ZNK6vectorIN3sat7literalELb0EjE4sizeEv.exit, label %9

9:                                                ; preds = %4
  %10 = getelementptr inbounds i8, ptr %7, i64 -4
  %11 = load i32, ptr %10, align 4, !tbaa !187
  br label %_ZNK6vectorIN3sat7literalELb0EjE4sizeEv.exit

_ZNK6vectorIN3sat7literalELb0EjE4sizeEv.exit:     ; preds = %4, %9
  %.0.i = phi i32 [ %11, %9 ], [ 0, %4 ]
  %12 = getelementptr inbounds nuw i8, ptr %5, i64 3608
  %13 = load i32, ptr %12, align 8, !tbaa !252
  %14 = icmp eq i32 %.0.i, %13
  br i1 %14, label %16, label %15

15:                                               ; preds = %_ZNK6vectorIN3sat7literalELb0EjE4sizeEv.exit
  tail call void @_Z26notify_assertion_violationPKciS0_(ptr noundef nonnull @.str.5, i32 noundef 353, ptr noundef nonnull @.str.6)
  tail call void @_Z18invoke_exit_actionj(i32 noundef 114)
  %.pre = load ptr, ptr %0, align 8, !tbaa !40
  br label %16

16:                                               ; preds = %15, %_ZNK6vectorIN3sat7literalELb0EjE4sizeEv.exit
  %17 = phi ptr [ %.pre, %15 ], [ %5, %_ZNK6vectorIN3sat7literalELb0EjE4sizeEv.exit ]
  %18 = getelementptr inbounds nuw i8, ptr %1, i64 4
  %19 = load i32, ptr %18, align 4, !tbaa !202
  tail call void @_ZN3sat6solver4pushEv(ptr noundef nonnull align 8 dereferenceable(4264) %17)
  %20 = icmp eq i32 %19, 0
  br i1 %20, label %._crit_edge.thread, label %.lr.ph

.lr.ph:                                           ; preds = %16
  %21 = getelementptr inbounds nuw i8, ptr %1, i64 20
  %22 = zext i32 %19 to i64
  %23 = zext i32 %2 to i64
  br label %.backedge

.backedge:                                        ; preds = %.backedge.backedge, %.lr.ph
  %indvars.iv = phi i64 [ 0, %.lr.ph ], [ %indvars.iv.be, %.backedge.backedge ]
  %24 = icmp eq i64 %indvars.iv, %23
  br i1 %24, label %.thread, label %25

25:                                               ; preds = %.backedge
  %26 = getelementptr inbounds nuw [0 x %"class.sat::literal"], ptr %21, i64 0, i64 %indvars.iv
  %.sroa.01.0.copyload = load i32, ptr %26, align 4, !tbaa !187
  %27 = xor i32 %.sroa.01.0.copyload, 1
  %28 = tail call noundef zeroext i1 @_ZN3sat12asymm_branch17propagate_literalERKNS_6clauseENS_7literalE(ptr noundef nonnull align 8 dereferenceable(128) %0, ptr nonnull align 4 poison, i32 %27)
  %indvars.iv.next = add nuw nsw i64 %indvars.iv, 1
  %29 = icmp samesign uge i64 %indvars.iv.next, %22
  %.not20 = select i1 %28, i1 true, i1 %29
  br i1 %.not20, label %._crit_edge, label %.backedge.backedge

.backedge.backedge:                               ; preds = %25, %.thread
  %indvars.iv.be = phi i64 [ %indvars.iv.next, %25 ], [ %indvars.iv.next29, %.thread ]
  br label %.backedge, !llvm.loop !253

.thread:                                          ; preds = %.backedge
  %indvars.iv.next29 = add nuw nsw i64 %indvars.iv, 1
  %.not = icmp samesign ult i64 %indvars.iv.next29, %22
  br i1 %.not, label %.backedge.backedge, label %._crit_edge.thread33

._crit_edge.thread33:                             ; preds = %.thread
  %30 = trunc nuw i64 %indvars.iv.next29 to i32
  br label %._crit_edge.thread

._crit_edge:                                      ; preds = %25
  %31 = trunc nuw i64 %indvars.iv.next to i32
  br i1 %28, label %36, label %._crit_edge.thread

._crit_edge.thread:                               ; preds = %16, %._crit_edge.thread33, %._crit_edge
  %.019.lcssa26 = phi i32 [ %31, %._crit_edge ], [ %30, %._crit_edge.thread33 ], [ 0, %16 ]
  %32 = getelementptr inbounds nuw i8, ptr %1, i64 20
  %33 = zext i32 %2 to i64
  %34 = getelementptr inbounds nuw [0 x %"class.sat::literal"], ptr %32, i64 0, i64 %33
  %.sroa.0.0.copyload = load i32, ptr %34, align 4, !tbaa !187
  %35 = tail call noundef zeroext i1 @_ZN3sat12asymm_branch17propagate_literalERKNS_6clauseENS_7literalE(ptr noundef nonnull align 8 dereferenceable(128) %0, ptr nonnull align 4 poison, i32 %.sroa.0.0.copyload)
  br label %36

36:                                               ; preds = %._crit_edge.thread, %._crit_edge
  %.019.lcssa27 = phi i32 [ %31, %._crit_edge ], [ %.019.lcssa26, %._crit_edge.thread ]
  %.2 = phi i1 [ true, %._crit_edge ], [ %35, %._crit_edge.thread ]
  %37 = load ptr, ptr %0, align 8, !tbaa !40
  tail call void @_ZN3sat6solver3popEj(ptr noundef nonnull align 8 dereferenceable(4264) %37, i32 noundef 1)
  store i32 %.019.lcssa27, ptr %3, align 4, !tbaa !187
  ret i1 %.2
}